target datalayout = "e-m:e-p270:32:32-p271:32:32-p272:64:64-i64:64-i128:128-f80:128-n8:16:32:64-S128"
target triple = "x86_64-pc-linux-gnu"

%"class.std::__1::random_device" = type { i32 }

@.str.1 = private unnamed_addr constant [22 x i8] c"random_device got EOF\00", align 1
@.str.2 = private unnamed_addr constant [38 x i8] c"random_device got an unexpected error\00", align 1

; Function Attrs: mustprogress uwtable
define dso_local noundef i32 @_ZNSt3__113random_deviceclEv(ptr noundef nonnull align 4 dereferenceable(4) %0) #0 align 2 {
  %2 = alloca ptr, align 8
  %3 = alloca i32, align 4
  %4 = alloca i64, align 8
  %5 = alloca ptr, align 8
  %6 = alloca i64, align 8
  %7 = alloca i32, align 4
  store ptr %0, ptr %2, align 8, !tbaa !4
  %8 = load ptr, ptr %2, align 8
  call void @llvm.lifetime.start.p0(i64 4, ptr %3) #17
  call void @llvm.lifetime.start.p0(i64 8, ptr %4) #17
  store i64 4, ptr %4, align 8, !tbaa !17
  call void @llvm.lifetime.start.p0(i64 8, ptr %5) #17
  store ptr %3, ptr %5, align 8, !tbaa !15
  br label %9

9:                                                ; preds = %41, %39, %1
  %10 = load i64, ptr %4, align 8, !tbaa !17
  %11 = icmp ugt i64 %10, 0
  br i1 %11, label %12, label %42

12:                                               ; preds = %9
  call void @llvm.lifetime.start.p0(i64 8, ptr %6) #17
  %13 = getelementptr inbounds nuw %"class.std::__1::random_device", ptr %8, i32 0, i32 0
  %14 = load i32, ptr %13, align 4, !tbaa !11
  %15 = load ptr, ptr %5, align 8, !tbaa !15
  %16 = load i64, ptr %4, align 8, !tbaa !17
  %17 = call i64 @read(i32 noundef %14, ptr noundef %15, i64 noundef %16)
  store i64 %17, ptr %6, align 8, !tbaa !17
  %18 = load i64, ptr %6, align 8, !tbaa !17
  %19 = icmp eq i64 %18, 0
  br i1 %19, label %20, label %21

20:                                               ; preds = %12
  call void @_ZNSt3__120__throw_system_errorEiPKc(i32 noundef 42, ptr noundef @.str.1) #19
  unreachable

21:                                               ; preds = %12
  %22 = load i64, ptr %6, align 8, !tbaa !17
  %23 = icmp eq i64 %22, -1
  br i1 %23, label %24, label %32

24:                                               ; preds = %21
  %25 = call ptr @__errno_location() #18
  %26 = load i32, ptr %25, align 4, !tbaa !14
  %27 = icmp ne i32 %26, 4
  br i1 %27, label %28, label %31

28:                                               ; preds = %24
  %29 = call ptr @__errno_location() #18
  %30 = load i32, ptr %29, align 4, !tbaa !14
  call void @_ZNSt3__120__throw_system_errorEiPKc(i32 noundef %30, ptr noundef @.str.2) #19
  unreachable

31:                                               ; preds = %24
  store i32 2, ptr %7, align 4
  br label %39, !llvm.loop !19

32:                                               ; preds = %21
  %33 = load i64, ptr %6, align 8, !tbaa !17
  %34 = load i64, ptr %4, align 8, !tbaa !17
  %35 = sub i64 %34, %33
  store i64 %35, ptr %4, align 8, !tbaa !17
  %36 = load i64, ptr %6, align 8, !tbaa !17
  %37 = load ptr, ptr %5, align 8, !tbaa !15
  %38 = getelementptr inbounds nuw i8, ptr %37, i64 %36
  store ptr %38, ptr %5, align 8, !tbaa !15
  store i32 0, ptr %7, align 4
  br label %39

39:                                               ; preds = %32, %31
  call void @llvm.lifetime.end.p0(i64 8, ptr %6) #17
  %40 = load i32, ptr %7, align 4
  switch i32 %40, label %44 [
    i32 0, label %41
    i32 2, label %9
  ]

41:                                               ; preds = %39
  br label %9, !llvm.loop !19

42:                                               ; preds = %9
  %43 = load i32, ptr %3, align 4, !tbaa !14
  store i32 1, ptr %7, align 4
  call void @llvm.lifetime.end.p0(i64 8, ptr %5) #17
  call void @llvm.lifetime.end.p0(i64 8, ptr %4) #17
  call void @llvm.lifetime.end.p0(i64 4, ptr %3) #17
  ret i32 %43

44:                                               ; preds = %39
  unreachable
}