; Function Attrs: mustprogress uwtable
define dso_local noundef i32 @_ZNSt3__113random_deviceclEv(ptr noundef nonnull readonly align 4 captures(none) dereferenceable(4) %0) local_unnamed_addr #0 align 2 {
  %2 = alloca i32, align 4
  call void @llvm.lifetime.start.p0(i64 4, ptr nonnull %2) #12
  br label %3

3:                                                ; preds = %1, %14
  %.015 = phi i64 [ 4, %1 ], [ %.1, %14 ]
  %.0914 = phi ptr [ %2, %1 ], [ %.110, %14 ]
  %4 = load i32, ptr %0, align 4, !tbaa !4
  %5 = call i64 @read(i32 noundef %4, ptr noundef %.0914, i64 noundef %.015)
  switch i64 %5, label %11 [
    i64 0, label %6
    i64 -1, label %7
  ]

6:                                                ; preds = %3
  tail call void @_ZNSt3__120__throw_system_errorEiPKc(i32 noundef 42, ptr noundef nonnull @.str.1) #13
  unreachable

7:                                                ; preds = %3
  %8 = tail call ptr @__errno_location() #11
  %9 = load i32, ptr %8, align 4, !tbaa !9
  %.not13 = icmp eq i32 %9, 4
  br i1 %.not13, label %14, label %10, !llvm.loop !11

10:                                               ; preds = %7
  tail call void @_ZNSt3__120__throw_system_errorEiPKc(i32 noundef %9, ptr noundef nonnull @.str.2) #13
  unreachable

11:                                               ; preds = %3
  %12 = sub i64 %.015, %5
  %13 = getelementptr inbounds nuw i8, ptr %.0914, i64 %5
  br label %14

14:                                               ; preds = %7, %11
  %.110 = phi ptr [ %13, %11 ], [ %.0914, %7 ]
  %.1 = phi i64 [ %12, %11 ], [ %.015, %7 ]
  %.not = icmp eq i64 %.1, 0
  br i1 %.not, label %15, label %3

15:                                               ; preds = %14
  %16 = load i32, ptr %2, align 4, !tbaa !9
  call void @llvm.lifetime.end.p0(i64 4, ptr nonnull %2) #12
  ret i32 %16
}